; Function Attrs: cold nounwind optsize uwtable
define internal noundef i32 @yuvtest_init(ptr noundef %0) #0 {
  %2 = getelementptr inbounds nuw i8, ptr %0, i64 72
  %3 = load ptr, ptr %2, align 8, !tbaa !4
  %4 = getelementptr inbounds nuw i8, ptr %3, i64 72
  store i32 1, ptr %4, align 8, !tbaa !28
  %5 = getelementptr inbounds nuw i8, ptr %3, i64 88
  store ptr @yuvtest_fill_picture, ptr %5, align 8, !tbaa !20
  %6 = tail call i32 @init(ptr noundef %0) #19
  ret i32 0
}